target datalayout = "e-m:e-p270:32:32-p271:32:32-p272:64:64-i64:64-i128:128-f80:128-n8:16:32:64-S128"
target triple = "x86_64-pc-linux-gnu"

%struct.Vec_Int_t_ = type { i32, i32, ptr }
%struct.Prs_Ntk_t_ = type { i32, i8, ptr, ptr, ptr, %struct.Vec_Int_t_, %struct.Vec_Int_t_, %struct.Vec_Int_t_, %struct.Vec_Int_t_, %struct.Vec_Int_t_, %struct.Vec_Int_t_, %struct.Vec_Int_t_, %struct.Vec_Int_t_, %struct.Vec_Int_t_, %struct.Vec_Int_t_, %struct.Vec_Int_t_, %struct.Vec_Int_t_, %struct.Vec_Int_t_ }

@.str.56 = private unnamed_addr constant [5 x i8] c"\\%s \00", align 1

; Function Attrs: inlinehint nounwind uwtable
define internal i32 @Prs_NameIsLegalInVerilog(ptr noundef %0, i32 noundef %1) #3 {
  %3 = alloca i32, align 4
  %4 = alloca ptr, align 8
  %5 = alloca i32, align 4
  store ptr %0, ptr %4, align 8, !tbaa !8
  store i32 %1, ptr %5, align 4, !tbaa !12
  %6 = load ptr, ptr %4, align 8, !tbaa !8
  %7 = load i8, ptr %6, align 1, !tbaa !20
  %8 = sext i8 %7 to i32
  %9 = icmp eq i32 %8, 92
  br i1 %9, label %10, label %11

10:                                               ; preds = %2
  store i32 1, ptr %3, align 4
  br label %90

11:                                               ; preds = %2
  %12 = load i32, ptr %5, align 4, !tbaa !12
  %13 = icmp slt i32 %12, 13
  br i1 %13, label %14, label %15

14:                                               ; preds = %11
  store i32 0, ptr %3, align 4
  br label %90

15:                                               ; preds = %11
  %16 = load ptr, ptr %4, align 8, !tbaa !8
  %17 = load i8, ptr %16, align 1, !tbaa !20
  %18 = sext i8 %17 to i32
  %19 = icmp slt i32 %18, 97
  br i1 %19, label %25, label %20

20:                                               ; preds = %15
  %21 = load ptr, ptr %4, align 8, !tbaa !8
  %22 = load i8, ptr %21, align 1, !tbaa !20
  %23 = sext i8 %22 to i32
  %24 = icmp sgt i32 %23, 122
  br i1 %24, label %25, label %41

25:                                               ; preds = %20, %15
  %26 = load ptr, ptr %4, align 8, !tbaa !8
  %27 = load i8, ptr %26, align 1, !tbaa !20
  %28 = sext i8 %27 to i32
  %29 = icmp slt i32 %28, 65
  br i1 %29, label %35, label %30

30:                                               ; preds = %25
  %31 = load ptr, ptr %4, align 8, !tbaa !8
  %32 = load i8, ptr %31, align 1, !tbaa !20
  %33 = sext i8 %32 to i32
  %34 = icmp sgt i32 %33, 90
  br i1 %34, label %35, label %41

35:                                               ; preds = %30, %25
  %36 = load ptr, ptr %4, align 8, !tbaa !8
  %37 = load i8, ptr %36, align 1, !tbaa !20
  %38 = sext i8 %37 to i32
  %39 = icmp ne i32 %38, 95
  br i1 %39, label %40, label %41

40:                                               ; preds = %35
  store i32 0, ptr %3, align 4
  br label %90

41:                                               ; preds = %35, %30, %20
  br label %42

42:                                               ; preds = %88, %41
  %43 = load ptr, ptr %4, align 8, !tbaa !8
  %44 = getelementptr inbounds nuw i8, ptr %43, i32 1
  store ptr %44, ptr %4, align 8, !tbaa !8
  %45 = load i8, ptr %44, align 1, !tbaa !20
  %46 = icmp ne i8 %45, 0
  br i1 %46, label %47, label %89

47:                                               ; preds = %42
  %48 = load ptr, ptr %4, align 8, !tbaa !8
  %49 = load i8, ptr %48, align 1, !tbaa !20
  %50 = sext i8 %49 to i32
  %51 = icmp slt i32 %50, 97
  br i1 %51, label %57, label %52

52:                                               ; preds = %47
  %53 = load ptr, ptr %4, align 8, !tbaa !8
  %54 = load i8, ptr %53, align 1, !tbaa !20
  %55 = sext i8 %54 to i32
  %56 = icmp sgt i32 %55, 122
  br i1 %56, label %57, label %88

57:                                               ; preds = %52, %47
  %58 = load ptr, ptr %4, align 8, !tbaa !8
  %59 = load i8, ptr %58, align 1, !tbaa !20
  %60 = sext i8 %59 to i32
  %61 = icmp slt i32 %60, 65
  br i1 %61, label %67, label %62

62:                                               ; preds = %57
  %63 = load ptr, ptr %4, align 8, !tbaa !8
  %64 = load i8, ptr %63, align 1, !tbaa !20
  %65 = sext i8 %64 to i32
  %66 = icmp sgt i32 %65, 90
  br i1 %66, label %67, label %88

67:                                               ; preds = %62, %57
  %68 = load ptr, ptr %4, align 8, !tbaa !8
  %69 = load i8, ptr %68, align 1, !tbaa !20
  %70 = sext i8 %69 to i32
  %71 = icmp slt i32 %70, 48
  br i1 %71, label %77, label %72

72:                                               ; preds = %67
  %73 = load ptr, ptr %4, align 8, !tbaa !8
  %74 = load i8, ptr %73, align 1, !tbaa !20
  %75 = sext i8 %74 to i32
  %76 = icmp sgt i32 %75, 57
  br i1 %76, label %77, label %88

77:                                               ; preds = %72, %67
  %78 = load ptr, ptr %4, align 8, !tbaa !8
  %79 = load i8, ptr %78, align 1, !tbaa !20
  %80 = sext i8 %79 to i32
  %81 = icmp ne i32 %80, 95
  br i1 %81, label %82, label %88

82:                                               ; preds = %77
  %83 = load ptr, ptr %4, align 8, !tbaa !8
  %84 = load i8, ptr %83, align 1, !tbaa !20
  %85 = sext i8 %84 to i32
  %86 = icmp ne i32 %85, 36
  br i1 %86, label %87, label %88

87:                                               ; preds = %82
  store i32 0, ptr %3, align 4
  br label %90

88:                                               ; preds = %82, %77, %72, %62, %52
  br label %42, !llvm.loop !21

89:                                               ; preds = %42
  store i32 1, ptr %3, align 4
  br label %90

90:                                               ; preds = %89, %87, %40, %14, %10
  %91 = load i32, ptr %3, align 4
  ret i32 %91
}

; Function Attrs: inlinehint nounwind uwtable
define internal ptr @Prs_NtkStr(ptr noundef %0, i32 noundef %1) #3 {
  %3 = alloca ptr, align 8
  %4 = alloca i32, align 4
  store ptr %0, ptr %3, align 8, !tbaa !10
  store i32 %1, ptr %4, align 4, !tbaa !12
  %5 = load ptr, ptr %3, align 8, !tbaa !10
  %6 = getelementptr inbounds nuw %struct.Prs_Ntk_t_, ptr %5, i32 0, i32 2
  %7 = load ptr, ptr %6, align 8, !tbaa !14
  %8 = load i32, ptr %4, align 4, !tbaa !12
  %9 = call ptr @Abc_NamStr(ptr noundef %7, i32 noundef %8)
  ret ptr %9
}

; Function Attrs: nounwind uwtable
define ptr @Prs_ObjGetName(ptr noundef %0, i32 noundef %1) #0 {
  %3 = alloca ptr, align 8
  %4 = alloca ptr, align 8
  %5 = alloca i32, align 4
  %6 = alloca ptr, align 8
  %7 = alloca i32, align 4
  store ptr %0, ptr %4, align 8, !tbaa !10
  store i32 %1, ptr %5, align 4, !tbaa !12
  call void @llvm.lifetime.start.p0(i64 8, ptr %6) #12
  %8 = load ptr, ptr %4, align 8, !tbaa !10
  %9 = load i32, ptr %5, align 4, !tbaa !12
  %10 = call ptr @Prs_NtkStr(ptr noundef %8, i32 noundef %9)
  store ptr %10, ptr %6, align 8, !tbaa !8
  %11 = load ptr, ptr %6, align 8, !tbaa !8
  %12 = icmp eq ptr %11, null
  br i1 %12, label %13, label %15

13:                                               ; preds = %2
  %14 = load ptr, ptr %6, align 8, !tbaa !8
  store ptr %14, ptr %3, align 8
  store i32 1, ptr %7, align 4
  br label %29

15:                                               ; preds = %2
  %16 = load ptr, ptr %6, align 8, !tbaa !8
  %17 = load i32, ptr %5, align 4, !tbaa !12
  %18 = call i32 @Prs_NameIsLegalInVerilog(ptr noundef %16, i32 noundef %17)
  %19 = icmp ne i32 %18, 0
  br i1 %19, label %20, label %22

20:                                               ; preds = %15
  %21 = load ptr, ptr %6, align 8, !tbaa !8
  store ptr %21, ptr %3, align 8
  store i32 1, ptr %7, align 4
  br label %29

22:                                               ; preds = %15
  %23 = load ptr, ptr %4, align 8, !tbaa !10
  %24 = getelementptr inbounds nuw %struct.Prs_Ntk_t_, ptr %23, i32 0, i32 2
  %25 = load ptr, ptr %24, align 8, !tbaa !14
  %26 = call ptr @Abc_NamBuffer(ptr noundef %25)
  %27 = load ptr, ptr %6, align 8, !tbaa !8
  %28 = call ptr (ptr, ptr, ...) @Vec_StrPrintF(ptr noundef %26, ptr noundef @.str.56, ptr noundef %27)
  store ptr %28, ptr %3, align 8
  store i32 1, ptr %7, align 4
  br label %29

29:                                               ; preds = %22, %20, %13
  call void @llvm.lifetime.end.p0(i64 8, ptr %6) #12
  %30 = load ptr, ptr %3, align 8
  ret ptr %30
}