; Function Attrs: nounwind uwtable
define ptr @Prs_ObjGetName(ptr noundef readonly captures(none) %0, i32 noundef %1) local_unnamed_addr #2 {
  %3 = getelementptr i8, ptr %0, i64 8
  %.val = load ptr, ptr %3, align 8, !tbaa !8
  %4 = tail call ptr @Abc_NamStr(ptr noundef %.val, i32 noundef %1) #16
  %5 = icmp eq ptr %4, null
  br i1 %5, label %Prs_NameIsLegalInVerilog.exit, label %6

6:                                                ; preds = %2
  %7 = load i8, ptr %4, align 1, !tbaa !15
  %8 = icmp eq i8 %7, 92
  br i1 %8, label %Prs_NameIsLegalInVerilog.exit, label %9

9:                                                ; preds = %6
  %10 = icmp slt i32 %1, 13
  br i1 %10, label %.loopexit, label %11

11:                                               ; preds = %9
  %12 = add i8 %7, -123
  %or.cond.i = icmp ult i8 %12, -26
  br i1 %or.cond.i, label %13, label %15

13:                                               ; preds = %11
  %14 = add i8 %7, -65
  %or.cond27.i = icmp ult i8 %14, 26
  %.not.i = icmp eq i8 %7, 95
  %or.cond31.i = or i1 %.not.i, %or.cond27.i
  br i1 %or.cond31.i, label %15, label %.loopexit

15:                                               ; preds = %13, %11
  %16 = getelementptr inbounds nuw i8, ptr %4, i64 1
  %17 = load i8, ptr %16, align 1, !tbaa !15
  %.not2434.i = icmp eq i8 %17, 0
  br i1 %.not2434.i, label %Prs_NameIsLegalInVerilog.exit, label %.lr.ph.i

.lr.ph.i:                                         ; preds = %15, %24
  %18 = phi i8 [ %26, %24 ], [ %17, %15 ]
  %19 = phi ptr [ %25, %24 ], [ %16, %15 ]
  %20 = and i8 %18, -33
  %21 = add i8 %20, -91
  %or.cond32.i = icmp ult i8 %21, -26
  %22 = add i8 %18, -58
  %or.cond30.i = icmp ult i8 %22, -10
  %or.cond33.i = and i1 %or.cond30.i, %or.cond32.i
  br i1 %or.cond33.i, label %23, label %24

23:                                               ; preds = %.lr.ph.i
  switch i8 %18, label %.loopexit [
    i8 95, label %24
    i8 36, label %24
  ]

24:                                               ; preds = %23, %23, %.lr.ph.i
  %25 = getelementptr inbounds nuw i8, ptr %19, i64 1
  %26 = load i8, ptr %25, align 1, !tbaa !15
  %.not24.i = icmp eq i8 %26, 0
  br i1 %.not24.i, label %Prs_NameIsLegalInVerilog.exit, label %.lr.ph.i, !llvm.loop !16

.loopexit:                                        ; preds = %23, %9, %13
  %27 = load ptr, ptr %3, align 8, !tbaa !8
  %28 = tail call ptr @Abc_NamBuffer(ptr noundef %27) #16
  %29 = tail call ptr (ptr, ptr, ...) @Vec_StrPrintF(ptr noundef %28, ptr noundef nonnull @.str.56, ptr noundef nonnull %4)
  br label %Prs_NameIsLegalInVerilog.exit

Prs_NameIsLegalInVerilog.exit:                    ; preds = %24, %15, %6, %2, %.loopexit
  %.0 = phi ptr [ %29, %.loopexit ], [ null, %2 ], [ %4, %6 ], [ %4, %15 ], [ %4, %24 ]
  ret ptr %.0
}